(lp0
(I854
I2098
I917
I2036
tp1
a(I1681
I476
I1836
I322
tp2
a(I934
I2551
I1009
I2476
tp3
a(I1477
I1716
I1585
I1608
tp4
a(I1250
I2623
I1358
I2516
tp5
a(I1440
I4329
I1595
I4174
tp6
a(I1595
I2609
I1750
I2454
tp7
a(I1543
I2093
I1698
I1938
tp8
a(I1059
I3082
I1133
I3007
tp9
a(I834
I2741
I896
I2679
tp10
a(I861
I2326
I923
I2264
tp11
a(I875
I1884
I937
I1821
tp12
a(I1371
I2987
I1526
I2833
tp13
a(I1298
I2217
I1406
I2110
tp14
a(I926
I2775
I1001
I2700
tp15
a(I959
I1564
I1034
I1489
tp16
a(I1681
I3159
I1836
I3005
tp17
a(I1612
I1543
I1767
I1388
tp18
a(I1443
I927
I1572
I798
tp19
a(I1625
I3771
I1811
I3585
tp20
a(I1262
I1847
I1370
I1740
tp21
a(I834
I2520
I896
I2457
tp22
a(I1286
I1501
I1394
I1393
tp23
a(I1151
I3828
I1241
I3739
tp24
a(I1012
I2813
I1101
I2723
tp25
a(I840
I2409
I903
I2347
tp26
a(I1443
I2661
I1572
I2532
tp27
a(I1141
I3460
I1231
I3370
tp28
a(I1664
I4226
I1818
I4071
tp29
a(I1310
I1142
I1418
I1035
tp30
a(I1443
I511
I1572
I382
tp31
a(I827
I3370
I889
I3308
tp32
a(I1155
I975
I1262
I868
tp33
a(I926
I3488
I1001
I3414
tp34
a(I826
I1995
I901
I1921
tp35
a(I806
I1752
I868
I1690
tp36
a(I976
I1332
I1050
I1257
tp37
a(I840
I1407
I903
I1345
tp38
a(I1082
I2256
I1171
I2166
tp39
a(I1415
I3980
I1544
I3851
tp40
a(I934
I3281
I1009
I3206
tp41
a(I868
I3169
I930
I3107
tp42
a(I875
I1628
I937
I1566
tp43
a(I1151
I3141
I1241
I3052
tp44
a(I2162
I3400
I2347
I3214
tp45
a(I1059
I1630
I1133
I1556
tp46
a.